target datalayout = "e-m:e-p270:32:32-p271:32:32-p272:64:64-i64:64-i128:128-f80:128-n8:16:32:64-S128"
target triple = "x86_64-pc-linux-gnu"

%struct.wtap_dumper = type { ptr, i32, i32, i32, i32, i8, i64, ptr, ptr, ptr, ptr, ptr, ptr, ptr, ptr, ptr, ptr, ptr, ptr, ptr, i32, i32, i32 }
%struct.netxray_dump_t = type { i8, i32, i32 }

; Function Attrs: null_pointer_is_valid sspstrong uwtable
define internal zeroext i1 @netxray_dump_open_2_0(ptr noundef %0, ptr noundef %1, ptr noundef %2) #0 {
  %4 = alloca i1, align 1
  %5 = alloca ptr, align 8
  %6 = alloca ptr, align 8
  %7 = alloca ptr, align 8
  %8 = alloca ptr, align 8
  %9 = alloca i32, align 4
  %10 = alloca i64, align 8
  %11 = alloca i64, align 8
  %12 = alloca ptr, align 8
  %13 = alloca ptr, align 8
  store ptr %0, ptr %5, align 8
  store ptr %1, ptr %6, align 8
  store ptr %2, ptr %7, align 8
  call void @llvm.lifetime.start.p0(i64 8, ptr %8) #12
  %14 = load ptr, ptr %5, align 8
  %15 = getelementptr inbounds nuw %struct.wtap_dumper, ptr %14, i32 0, i32 10
  store ptr @netxray_dump_2_0, ptr %15, align 8
  %16 = load ptr, ptr %5, align 8
  %17 = getelementptr inbounds nuw %struct.wtap_dumper, ptr %16, i32 0, i32 11
  store ptr @netxray_dump_finish_2_0, ptr %17, align 8
  %18 = load ptr, ptr %5, align 8
  %19 = load ptr, ptr %6, align 8
  %20 = call i64 @wtap_dump_file_seek(ptr noundef %18, i64 noundef 128, i32 noundef 0, ptr noundef %19)
  %21 = icmp eq i64 %20, -1
  br i1 %21, label %22, label %23

22:                                               ; preds = %3
  store i1 false, ptr %4, align 1
  store i32 1, ptr %9, align 4
  br label %66

23:                                               ; preds = %3
  %24 = load ptr, ptr %5, align 8
  %25 = getelementptr inbounds nuw %struct.wtap_dumper, ptr %24, i32 0, i32 6
  %26 = load i64, ptr %25, align 8
  %27 = add i64 %26, 128
  store i64 %27, ptr %25, align 8
  call void @llvm.lifetime.start.p0(i64 8, ptr %10) #12
  store i64 1, ptr %10, align 8
  call void @llvm.lifetime.start.p0(i64 8, ptr %11) #12
  store i64 12, ptr %11, align 8
  call void @llvm.lifetime.start.p0(i64 8, ptr %12) #12
  %28 = load i64, ptr %11, align 8
  %29 = icmp eq i64 %28, 1
  br i1 %29, label %30, label %33

30:                                               ; preds = %23
  %31 = load i64, ptr %10, align 8
  %32 = call noalias ptr @g_malloc(i64 noundef %31) #14
  store ptr %32, ptr %12, align 8
  br label %54

33:                                               ; preds = %23
  %34 = load i64, ptr %10, align 8
  %35 = call i1 @llvm.is.constant.i64(i64 %34)
  br i1 %35, label %36, label %49

36:                                               ; preds = %33
  %37 = load i64, ptr %11, align 8
  %38 = icmp eq i64 %37, 0
  br i1 %38, label %44, label %39

39:                                               ; preds = %36
  %40 = load i64, ptr %10, align 8
  %41 = load i64, ptr %11, align 8
  %42 = udiv i64 -1, %41
  %43 = icmp ule i64 %40, %42
  br i1 %43, label %44, label %49

44:                                               ; preds = %39, %36
  %45 = load i64, ptr %10, align 8
  %46 = load i64, ptr %11, align 8
  %47 = mul i64 %45, %46
  %48 = call noalias ptr @g_malloc(i64 noundef %47) #14
  store ptr %48, ptr %12, align 8
  br label %53

49:                                               ; preds = %39, %33
  %50 = load i64, ptr %10, align 8
  %51 = load i64, ptr %11, align 8
  %52 = call noalias ptr @g_malloc_n(i64 noundef %50, i64 noundef %51) #15
  store ptr %52, ptr %12, align 8
  br label %53

53:                                               ; preds = %49, %44
  br label %54

54:                                               ; preds = %53, %30
  %55 = load ptr, ptr %12, align 8
  store ptr %55, ptr %13, align 8
  call void @llvm.lifetime.end.p0(i64 8, ptr %12) #12
  call void @llvm.lifetime.end.p0(i64 8, ptr %11) #12
  call void @llvm.lifetime.end.p0(i64 8, ptr %10) #12
  %56 = load ptr, ptr %13, align 8
  store ptr %56, ptr %8, align 8
  %57 = load ptr, ptr %8, align 8
  %58 = load ptr, ptr %5, align 8
  %59 = getelementptr inbounds nuw %struct.wtap_dumper, ptr %58, i32 0, i32 7
  store ptr %57, ptr %59, align 8
  %60 = load ptr, ptr %8, align 8
  %61 = getelementptr inbounds nuw %struct.netxray_dump_t, ptr %60, i32 0, i32 0
  store i8 1, ptr %61, align 4
  %62 = load ptr, ptr %8, align 8
  %63 = getelementptr inbounds nuw %struct.netxray_dump_t, ptr %62, i32 0, i32 1
  store i32 0, ptr %63, align 4
  %64 = load ptr, ptr %8, align 8
  %65 = getelementptr inbounds nuw %struct.netxray_dump_t, ptr %64, i32 0, i32 2
  store i32 0, ptr %65, align 4
  store i1 true, ptr %4, align 1
  store i32 1, ptr %9, align 4
  br label %66

66:                                               ; preds = %54, %22
  call void @llvm.lifetime.end.p0(i64 8, ptr %8) #12
  %67 = load i1, ptr %4, align 1
  ret i1 %67
}