; Function Attrs: null_pointer_is_valid sspstrong uwtable
define internal noundef zeroext i1 @netxray_dump_open_2_0(ptr noundef initializes((64, 80)) %0, ptr noundef %1, ptr readnone captures(none) %2) #0 {
  %4 = getelementptr inbounds nuw i8, ptr %0, i64 64
  store ptr @netxray_dump_2_0, ptr %4, align 8
  %5 = getelementptr inbounds nuw i8, ptr %0, i64 72
  store ptr @netxray_dump_finish_2_0, ptr %5, align 8
  %6 = tail call i64 @wtap_dump_file_seek(ptr noundef %0, i64 noundef 128, i32 noundef 0, ptr noundef %1)
  %7 = icmp ne i64 %6, -1
  br i1 %7, label %8, label %16

8:                                                ; preds = %3
  %9 = getelementptr inbounds nuw i8, ptr %0, i64 32
  %10 = load i64, ptr %9, align 8
  %11 = add i64 %10, 128
  store i64 %11, ptr %9, align 8
  %12 = tail call noalias dereferenceable_or_null(12) ptr @g_malloc(i64 noundef 12) #9
  %13 = getelementptr inbounds nuw i8, ptr %0, i64 40
  store ptr %12, ptr %13, align 8
  store i8 1, ptr %12, align 4
  %14 = getelementptr inbounds nuw i8, ptr %12, i64 4
  store i32 0, ptr %14, align 4
  %15 = getelementptr inbounds nuw i8, ptr %12, i64 8
  store i32 0, ptr %15, align 4
  br label %16

16:                                               ; preds = %3, %8
  ret i1 %7
}